target datalayout = "e-m:e-p270:32:32-p271:32:32-p272:64:64-i64:64-i128:128-f80:128-n8:16:32:64-S128"
target triple = "x86_64-pc-linux-gnu"

%struct._packet_info = type { ptr, ptr, i32, i32, %struct.nstime_t, %struct.nstime_t, %struct.nstime_t, i8, ptr, ptr, ptr, ptr, %struct._address, %struct._address, %struct._address, %struct._address, %struct._address, %struct._address, i32, ptr, i8, [3 x i8], %struct.anon, i32, i32, i32, i32, ptr, i8, ptr, ptr, i16, i16, i32, i32, i16, i32, i32, ptr, ptr, ptr, i8, i8, i16, i16, i16, i32, i16, i16, ptr, ptr, ptr, ptr, ptr, i32, i32 }
%struct.nstime_t = type { i64, i32 }
%struct._address = type { i32, i32, ptr, ptr }
%struct.anon = type { i8, [3 x i8] }
%struct._gencp_transaction_t = type { i32, i32, %struct.nstime_t, ptr, i64, i32 }
%struct._proto_node = type { ptr, ptr, ptr, ptr, ptr, ptr, ptr }
%struct.field_info = type { ptr, i32, i32, i32, i32, i32, i32, ptr, ptr, ptr, i32, i32 }

@ett_u3v_payload_cmd = internal global i32 0, align 4
@hf_u3v_address = internal global i32 0, align 4
@hf_u3v_count = internal global i32 0, align 4
@hf_u3v_reserved = internal global i32 0, align 4
@hf_u3v_scd_writemem_ack = internal global i32 0, align 4

; Function Attrs: inlinehint nounwind null_pointer_is_valid sspstrong uwtable
define internal void @proto_item_set_generated(ptr noundef %0) #5 {
  %2 = alloca ptr, align 8
  store ptr %0, ptr %2, align 8
  %3 = load ptr, ptr %2, align 8
  %4 = icmp ne ptr %3, null
  br i1 %4, label %5, label %24

5:                                                ; preds = %1
  br label %6

6:                                                ; preds = %5
  %7 = load ptr, ptr %2, align 8
  %8 = getelementptr inbounds nuw %struct._proto_node, ptr %7, i32 0, i32 5
  %9 = load ptr, ptr %8, align 8
  %10 = icmp ne ptr %9, null
  br i1 %10, label %11, label %22

11:                                               ; preds = %6
  %12 = load ptr, ptr %2, align 8
  %13 = getelementptr inbounds nuw %struct._proto_node, ptr %12, i32 0, i32 5
  %14 = load ptr, ptr %13, align 8
  %15 = getelementptr inbounds nuw %struct.field_info, ptr %14, i32 0, i32 6
  %16 = load i32, ptr %15, align 4
  %17 = or i32 %16, 2
  %18 = load ptr, ptr %2, align 8
  %19 = getelementptr inbounds nuw %struct._proto_node, ptr %18, i32 0, i32 5
  %20 = load ptr, ptr %19, align 8
  %21 = getelementptr inbounds nuw %struct.field_info, ptr %20, i32 0, i32 6
  store i32 %17, ptr %21, align 4
  br label %22

22:                                               ; preds = %11, %6
  br label %23

23:                                               ; preds = %22
  br label %24

24:                                               ; preds = %23, %1
  ret void
}

; Function Attrs: null_pointer_is_valid sspstrong uwtable
define internal void @dissect_u3v_write_mem_ack(ptr noundef %0, ptr noundef %1, ptr noundef %2, i32 noundef %3, i32 noundef %4, ptr noundef %5, ptr noundef %6) #0 {
  %8 = alloca ptr, align 8
  %9 = alloca ptr, align 8
  %10 = alloca ptr, align 8
  %11 = alloca i32, align 4
  %12 = alloca i32, align 4
  %13 = alloca ptr, align 8
  %14 = alloca ptr, align 8
  %15 = alloca i64, align 8
  %16 = alloca i32, align 4
  %17 = alloca ptr, align 8
  %18 = alloca i8, align 1
  %19 = alloca i8, align 1
  %20 = alloca ptr, align 8
  store ptr %0, ptr %8, align 8
  store ptr %1, ptr %9, align 8
  store ptr %2, ptr %10, align 8
  store i32 %3, ptr %11, align 4
  store i32 %4, ptr %12, align 4
  store ptr %5, ptr %13, align 8
  store ptr %6, ptr %14, align 8
  call void @llvm.lifetime.start.p0(i64 8, ptr %15) #6
  store i64 0, ptr %15, align 8
  call void @llvm.lifetime.start.p0(i64 4, ptr %16) #6
  %21 = load i32, ptr %11, align 4
  store i32 %21, ptr %16, align 4
  call void @llvm.lifetime.start.p0(i64 8, ptr %17) #6
  store ptr null, ptr %17, align 8
  call void @llvm.lifetime.start.p0(i64 1, ptr %18) #6
  store i8 0, ptr %18, align 1
  call void @llvm.lifetime.start.p0(i64 1, ptr %19) #6
  %22 = load ptr, ptr %14, align 8
  %23 = getelementptr inbounds nuw %struct._gencp_transaction_t, ptr %22, i32 0, i32 0
  %24 = load i32, ptr %23, align 8
  %25 = icmp ne i32 0, %24
  %26 = zext i1 %25 to i8
  store i8 %26, ptr %19, align 1
  call void @llvm.lifetime.start.p0(i64 8, ptr %20) #6
  store ptr null, ptr %20, align 8
  %27 = load ptr, ptr %14, align 8
  %28 = getelementptr inbounds nuw %struct._gencp_transaction_t, ptr %27, i32 0, i32 4
  %29 = load i64, ptr %28, align 8
  store i64 %29, ptr %15, align 8
  %30 = load i8, ptr %19, align 1, !range !6, !noundef !7
  %31 = trunc i8 %30 to i1
  br i1 %31, label %32, label %40

32:                                               ; preds = %7
  %33 = load i64, ptr %15, align 8
  %34 = load ptr, ptr %13, align 8
  %35 = call ptr @get_register_name_from_address(i64 noundef %33, ptr noundef %18, ptr noundef %34)
  store ptr %35, ptr %17, align 8
  %36 = load ptr, ptr %10, align 8
  %37 = getelementptr inbounds nuw %struct._packet_info, ptr %36, i32 0, i32 1
  %38 = load ptr, ptr %37, align 8
  %39 = load ptr, ptr %17, align 8
  call void @col_append_str(ptr noundef %38, i32 noundef 25, ptr noundef %39)
  br label %40

40:                                               ; preds = %32, %7
  %41 = load ptr, ptr %8, align 8
  %42 = load i32, ptr @hf_u3v_scd_writemem_ack, align 4
  %43 = load ptr, ptr %9, align 8
  %44 = load i32, ptr %11, align 4
  %45 = load i32, ptr %12, align 4
  %46 = call ptr @proto_tree_add_item(ptr noundef %41, i32 noundef %42, ptr noundef %43, i32 noundef %44, i32 noundef %45, i32 noundef 0)
  store ptr %46, ptr %20, align 8
  %47 = load ptr, ptr %20, align 8
  %48 = load i32, ptr @ett_u3v_payload_cmd, align 4
  %49 = call ptr @proto_item_add_subtree(ptr noundef %47, i32 noundef %48)
  store ptr %49, ptr %8, align 8
  %50 = load i8, ptr %19, align 1, !range !6, !noundef !7
  %51 = trunc i8 %50 to i1
  br i1 %51, label %52, label %59

52:                                               ; preds = %40
  %53 = load ptr, ptr %8, align 8
  %54 = load i32, ptr @hf_u3v_address, align 4
  %55 = load ptr, ptr %9, align 8
  %56 = load i64, ptr %15, align 8
  %57 = call ptr @proto_tree_add_uint64(ptr noundef %53, i32 noundef %54, ptr noundef %55, i32 noundef 0, i32 noundef 0, i64 noundef %56)
  store ptr %57, ptr %20, align 8
  %58 = load ptr, ptr %20, align 8
  call void @proto_item_set_generated(ptr noundef %58)
  br label %59

59:                                               ; preds = %52, %40
  %60 = load i32, ptr %12, align 4
  %61 = icmp eq i32 %60, 4
  br i1 %61, label %62, label %75

62:                                               ; preds = %59
  %63 = load ptr, ptr %8, align 8
  %64 = load i32, ptr @hf_u3v_reserved, align 4
  %65 = load ptr, ptr %9, align 8
  %66 = load i32, ptr %16, align 4
  %67 = call ptr @proto_tree_add_item(ptr noundef %63, i32 noundef %64, ptr noundef %65, i32 noundef %66, i32 noundef 2, i32 noundef 0)
  %68 = load i32, ptr %16, align 4
  %69 = add i32 %68, 2
  store i32 %69, ptr %16, align 4
  %70 = load ptr, ptr %8, align 8
  %71 = load i32, ptr @hf_u3v_count, align 4
  %72 = load ptr, ptr %9, align 8
  %73 = load i32, ptr %16, align 4
  %74 = call ptr @proto_tree_add_item(ptr noundef %70, i32 noundef %71, ptr noundef %72, i32 noundef %73, i32 noundef 2, i32 noundef -2147483648)
  br label %75

75:                                               ; preds = %62, %59
  call void @llvm.lifetime.end.p0(i64 8, ptr %20) #6
  call void @llvm.lifetime.end.p0(i64 1, ptr %19) #6
  call void @llvm.lifetime.end.p0(i64 1, ptr %18) #6
  call void @llvm.lifetime.end.p0(i64 8, ptr %17) #6
  call void @llvm.lifetime.end.p0(i64 4, ptr %16) #6
  call void @llvm.lifetime.end.p0(i64 8, ptr %15) #6
  ret void
}