; Function Attrs: null_pointer_is_valid sspstrong uwtable
define internal fastcc void @dissect_u3v_write_mem_ack(ptr noundef %0, ptr noundef %1, ptr noundef readonly captures(none) %2, i32 noundef range(i32 0, 65536) %3, ptr noundef captures(address_is_null) %4, i32 %.0.val, i64 %.32.val) unnamed_addr #0 {
  %6 = alloca i8, align 1
  call void @llvm.lifetime.start.p0(i64 1, ptr nonnull %6) #7
  store i8 0, ptr %6, align 1
  %.not = icmp eq i32 %.0.val, 0
  br i1 %.not, label %11, label %7

7:                                                ; preds = %5
  %8 = call fastcc ptr @get_register_name_from_address(i64 noundef %.32.val, ptr noundef nonnull %6, ptr noundef %4)
  %9 = getelementptr inbounds nuw i8, ptr %2, i64 8
  %10 = load ptr, ptr %9, align 8
  call void @col_append_str(ptr noundef %10, i32 noundef 25, ptr noundef %8)
  br label %11

11:                                               ; preds = %7, %5
  %12 = load i32, ptr @hf_u3v_scd_writemem_ack, align 4
  %13 = call ptr @proto_tree_add_item(ptr noundef %0, i32 noundef %12, ptr noundef %1, i32 noundef 12, i32 noundef %3, i32 noundef 0)
  %14 = load i32, ptr @ett_u3v_payload_cmd, align 4
  %15 = call ptr @proto_item_add_subtree(ptr noundef %13, i32 noundef %14)
  br i1 %.not, label %proto_item_set_generated.exit, label %16

16:                                               ; preds = %11
  %17 = load i32, ptr @hf_u3v_address, align 4
  %18 = call ptr @proto_tree_add_uint64(ptr noundef %15, i32 noundef %17, ptr noundef %1, i32 noundef 0, i32 noundef 0, i64 noundef %.32.val)
  %.not.i = icmp eq ptr %18, null
  br i1 %.not.i, label %proto_item_set_generated.exit, label %19

19:                                               ; preds = %16
  %20 = getelementptr inbounds nuw i8, ptr %18, i64 40
  %21 = load ptr, ptr %20, align 8
  %.not5.i = icmp eq ptr %21, null
  br i1 %.not5.i, label %proto_item_set_generated.exit, label %22

22:                                               ; preds = %19
  %23 = getelementptr inbounds nuw i8, ptr %21, i64 28
  %24 = load i32, ptr %23, align 4
  %25 = or i32 %24, 2
  store i32 %25, ptr %23, align 4
  br label %proto_item_set_generated.exit

proto_item_set_generated.exit:                    ; preds = %22, %19, %16, %11
  %26 = icmp eq i32 %3, 4
  br i1 %26, label %27, label %32

27:                                               ; preds = %proto_item_set_generated.exit
  %28 = load i32, ptr @hf_u3v_reserved, align 4
  %29 = call ptr @proto_tree_add_item(ptr noundef %15, i32 noundef %28, ptr noundef %1, i32 noundef 12, i32 noundef 2, i32 noundef 0)
  %30 = load i32, ptr @hf_u3v_count, align 4
  %31 = call ptr @proto_tree_add_item(ptr noundef %15, i32 noundef %30, ptr noundef %1, i32 noundef 14, i32 noundef 2, i32 noundef -2147483648)
  br label %32

32:                                               ; preds = %27, %proto_item_set_generated.exit
  call void @llvm.lifetime.end.p0(i64 1, ptr nonnull %6) #7
  ret void
}